Certificate:
    Data:
        Version: 3 (0x2)
        Serial Number: 4097 (0x1001)
        Signature Algorithm: sha256WithRSAEncryption
        Issuer: C=US, ST=VA, L=Fairfax, O=GMU, OU=cs468, CN=myrootCA
        Validity
            Not Before: May  6 04:20:36 2026 GMT
            Not After : May  3 04:20:36 2036 GMT
        Subject: C=US, ST=VA, O=GMU, CN=www.example.com
        Subject Public Key Info:
            Public Key Algorithm: rsaEncryption
                RSA Public-Key: (2048 bit)
                Modulus:
                    00:bc:d3:4c:6c:2f:15:5e:db:7d:84:4f:78:14:eb:
                    6c:02:8a:82:7d:a5:ab:e7:3e:ef:cb:97:22:ff:14:
                    2a:03:e2:db:af:e0:7d:dd:1f:12:02:ef:ec:a0:59:
                    f7:f3:87:6c:45:82:7a:dc:c2:98:e7:3a:f0:d9:31:
                    57:85:e2:15:8a:1e:e3:ef:97:bf:83:7e:fd:b3:8f:
                    ab:be:ec:37:b2:63:67:f2:7d:68:1c:2e:22:a2:db:
                    19:7d:e0:30:b1:4c:54:4e:02:ff:93:e6:e7:32:65:
                    05:e2:3e:de:43:fe:fa:f3:4a:38:32:66:5b:fd:1e:
                    80:19:89:ad:fd:57:af:73:ce:ae:04:c5:3b:ac:42:
                    5d:53:38:68:8f:98:3a:bf:c6:f2:36:01:d3:cd:d0:
                    71:2e:f2:74:06:74:b8:16:96:a8:19:f9:cf:47:ba:
                    e2:8d:2c:ce:e2:9a:9d:6b:dd:12:e3:d9:03:a1:fa:
                    02:48:35:10:ad:1d:65:91:8d:15:1c:74:6c:58:25:
                    35:48:77:f0:05:82:6d:21:bc:35:75:29:e8:9e:f8:
                    55:71:d4:44:7b:51:4c:1d:12:ee:ba:c3:7d:e4:5c:
                    aa:e1:a0:b4:3c:8d:bc:85:c3:8a:80:13:39:78:eb:
                    ba:e7:83:b6:fb:e2:9a:c3:31:58:07:3f:2b:51:3d:
                    6d:05
                Exponent: 65537 (0x10001)
        X509v3 extensions:
            X509v3 Basic Constraints: 
                CA:FALSE
            Netscape Comment: 
                OpenSSL Generated Certificate
            X509v3 Subject Key Identifier: 
                9E:3A:3C:C9:57:37:C6:44:C0:89:33:DA:25:C5:7D:68:28:50:10:14
            X509v3 Authority Key Identifier: 
                keyid:A7:2A:7D:FA:2C:3D:C1:8D:3C:3B:FF:DF:0E:AB:34:82:50:FE:6A:F5

            X509v3 Subject Alternative Name: 
                DNS:www.example.com
    Signature Algorithm: sha256WithRSAEncryption
         83:a2:cd:60:96:80:10:11:87:84:0e:8e:39:15:df:3b:57:21:
         ca:4a:c0:1d:d1:82:4d:9e:67:da:68:d8:be:14:0c:de:98:ef:
         cd:6b:cd:e1:f9:02:fe:19:a8:56:c8:22:13:46:50:85:8d:81:
         06:58:36:6a:c4:50:34:ba:fd:01:82:ce:1f:7e:f2:f2:9e:20:
         24:27:51:1f:f4:a6:93:02:bc:7a:c4:31:e3:3a:90:3f:58:6d:
         f3:de:4f:c1:fa:1e:89:0a:69:fb:21:b7:29:b5:f8:69:7c:6f:
         35:f6:34:dd:18:66:a5:75:0a:5e:70:f4:24:b3:a9:20:31:11:
         f8:1a:07:65:a9:27:c2:92:56:94:56:16:7f:cf:9c:55:2c:03:
         38:7d:38:85:52:48:ae:4b:a0:16:9d:e8:ce:a0:41:46:e8:e5:
         fb:28:13:e1:42:6c:d1:4d:3b:c7:36:92:5b:67:b2:e8:9a:9f:
         72:79:a1:70:b3:6e:4b:8b:d7:ea:40:80:9b:49:a0:51:56:77:
         59:eb:8e:71:3d:76:bc:da:50:1a:5c:96:42:d5:87:3d:47:ff:
         af:c9:61:d0:67:af:39:77:2f:e8:ae:fb:8c:2b:56:27:bb:b3:
         38:2e:a4:c3:dc:8f:b0:01:f3:ba:17:d6:75:d0:ba:c8:37:2c:
         72:4f:b9:0c:0b:8a:cf:c5:5c:e2:eb:ea:4c:7a:6f:e5:e6:71:
         99:17:b4:7f:ec:c3:7b:a3:e7:d6:6f:10:76:a9:a4:0c:56:84:
         1f:f4:f0:ec:8d:fe:fb:94:2f:07:d6:f2:b4:66:d7:ae:66:1f:
         47:5e:29:e2:fa:85:99:4f:8a:c3:20:fa:6f:49:64:37:78:c0:
         20:30:2c:c9:3a:fb:be:1c:cf:b7:13:ac:bc:40:51:72:a1:4c:
         22:c7:68:c0:c9:2a:79:92:be:e1:d4:dd:93:0f:db:1a:b9:4a:
         2e:82:67:70:13:55:57:3a:09:65:6e:cd:41:56:76:a0:67:9c:
         cd:ac:7f:7f:5a:f0:55:52:d4:23:f6:28:f4:8d:69:75:59:4f:
         57:bf:94:95:de:52:49:31:a8:b5:5f:e1:1a:85:aa:1a:43:5c:
         33:81:aa:4e:c9:5e:38:da:cc:44:5c:92:59:f9:18:77:00:a6:
         49:3b:2b:77:81:51:92:17:da:65:4b:3a:0d:f6:22:4b:99:26:
         90:c4:5b:d5:5f:62:83:14:6d:93:0a:b2:b3:f3:e5:83:f7:be:
         77:79:83:18:31:dd:87:b5:73:2a:5b:bc:ed:2d:32:fd:92:1e:
         0f:61:27:87:31:13:e3:38:13:91:57:ba:3d:c7:a8:0d:c7:15:
         aa:80:a5:0e:1c:48:63:6e
-----BEGIN CERTIFICATE-----
MIIEtDCCApygAwIBAgICEAEwDQYJKoZIhvcNAQELBQAwXTELMAkGA1UEBhMCVVMx
CzAJBgNVBAgMAlZBMRAwDgYDVQQHDAdGYWlyZmF4MQwwCgYDVQQKDANHTVUxDjAM
BgNVBAsMBWNzNDY4MREwDwYDVQQDDAhteXJvb3RDQTAeFw0yNjA1MDYwNDIwMzZa
Fw0zNjA1MDMwNDIwMzZaMEIxCzAJBgNVBAYTAlVTMQswCQYDVQQIDAJWQTEMMAoG
A1UECgwDR01VMRgwFgYDVQQDDA93d3cuZXhhbXBsZS5jb20wggEiMA0GCSqGSIb3
DQEBAQUAA4IBDwAwggEKAoIBAQC800xsLxVe232ET3gU62wCioJ9pavnPu/LlyL/
FCoD4tuv4H3dHxIC7+ygWffzh2xFgnrcwpjnOvDZMVeF4hWKHuPvl7+Dfv2zj6u+
7DeyY2fyfWgcLiKi2xl94DCxTFROAv+T5ucyZQXiPt5D/vrzSjgyZlv9HoAZia39
V69zzq4ExTusQl1TOGiPmDq/xvI2AdPN0HEu8nQGdLgWlqgZ+c9HuuKNLM7imp1r
3RLj2QOh+gJINRCtHWWRjRUcdGxYJTVId/AFgm0hvDV1Keie+FVx1ER7UUwdEu66
w33kXKrhoLQ8jbyFw4qAEzl467rng7b74prDMVgHPytRPW0FAgMBAAGjgZgwgZUw
CQYDVR0TBAIwADAsBglghkgBhvhCAQ0EHxYdT3BlblNTTCBHZW5lcmF0ZWQgQ2Vy
dGlmaWNhdGUwHQYDVR0OBBYEFJ46PMlXN8ZEwIkz2iXFfWgoUBAUMB8GA1UdIwQY
MBaAFKcqffosPcGNPDv/3w6rNIJQ/mr1MBoGA1UdEQQTMBGCD3d3dy5leGFtcGxl
LmNvbTANBgkqhkiG9w0BAQsFAAOCAgEAg6LNYJaAEBGHhA6OORXfO1chykrAHdGC
TZ5n2mjYvhQM3pjvzWvN4fkC/hmoVsgiE0ZQhY2BBlg2asRQNLr9AYLOH37y8p4g
JCdRH/SmkwK8esQx4zqQP1ht895PwfoeiQpp+yG3KbX4aXxvNfY03RhmpXUKXnD0
JLOpIDER+BoHZaknwpJWlFYWf8+cVSwDOH04hVJIrkugFp3ozqBBRujl+ygT4UJs
0U07xzaSW2ey6JqfcnmhcLNuS4vX6kCAm0mgUVZ3WeuOcT12vNpQGlyWQtWHPUf/
r8lh0GevOXcv6K77jCtWJ7uzOC6kw9yPsAHzuhfWddC6yDcsck+5DAuKz8Vc4uvq
THpv5eZxmRe0f+zDe6Pn1m8QdqmkDFaEH/Tw7I3++5QvB9bytGbXrmYfR14p4vqF
mU+KwyD6b0lkN3jAIDAsyTr7vhzPtxOsvEBRcqFMIsdowMkqeZK+4dTdkw/bGrlK
LoJncBNVVzoJZW7NQVZ2oGeczax/f1rwVVLUI/Yo9I1pdVlPV7+Uld5SSTGotV/h
GoWqGkNcM4GqTsleONrMRFySWfkYdwCmSTsrd4FRkhfaZUs6DfYiS5kmkMRb1V9i
gxRtkwqys/Plg/e+d3mDGDHdh7VzKlu87S0y/ZIeD2EnhzET4zgTkVe6PceoDccV
qoClDhxIY24=
-----END CERTIFICATE-----
