Certificate:
    Data:
        Version: 3 (0x2)
        Serial Number: 4098 (0x1002)
        Signature Algorithm: sha256WithRSAEncryption
        Issuer: C=US, ST=VA, L=Fairfax, O=GMU, OU=cs468, CN=myrootCA
        Validity
            Not Before: May  6 05:27:43 2026 GMT
            Not After : May  3 05:27:43 2036 GMT
        Subject: C=US, ST=VA, O=GMU, CN=practicetestautomation.com
        Subject Public Key Info:
            Public Key Algorithm: rsaEncryption
                RSA Public-Key: (2048 bit)
                Modulus:
                    00:a4:16:e5:33:6d:0d:0f:9e:16:0d:f7:a9:37:17:
                    6c:6f:9a:fd:78:2a:84:8d:f1:6e:36:93:dc:19:b7:
                    f2:64:3c:21:54:9a:d2:0b:2b:a8:8c:ee:3f:d6:92:
                    ae:3d:9d:71:12:cf:06:58:47:bf:2d:5c:ee:cb:50:
                    e1:4e:8f:5a:38:e0:e9:db:1c:58:bb:67:5d:08:d8:
                    57:58:58:de:88:d9:29:1b:0c:d9:48:ba:1b:09:db:
                    f8:da:61:3d:24:2e:1d:10:ce:c4:2b:b6:b2:74:be:
                    67:ff:d0:19:79:f2:40:6a:97:2e:11:2f:71:4e:8a:
                    8e:65:20:50:b5:09:e0:f4:72:b7:15:80:2e:9d:d3:
                    9d:af:da:70:63:85:82:82:cd:c0:19:7f:64:26:96:
                    57:11:61:7d:57:8d:e5:a8:0c:44:07:44:1c:39:15:
                    89:dd:2c:c8:4f:c7:15:1a:82:1b:e2:2a:51:15:53:
                    79:1a:e3:56:7f:9e:15:cc:77:dc:b7:1d:80:bd:42:
                    e2:f6:1f:56:db:2b:e0:6c:b4:c0:61:39:da:18:8e:
                    ea:74:98:82:f7:70:1b:20:da:b5:f5:fb:6e:f0:c3:
                    01:d6:a7:ab:db:fc:00:a9:e6:bc:d3:b9:bf:53:41:
                    1a:5c:c0:11:5e:78:cf:d5:0d:4d:08:ee:cd:00:61:
                    91:b5
                Exponent: 65537 (0x10001)
        X509v3 extensions:
            X509v3 Basic Constraints: 
                CA:FALSE
            Netscape Comment: 
                OpenSSL Generated Certificate
            X509v3 Subject Key Identifier: 
                C2:0B:86:93:73:2B:E5:4A:33:3D:3A:B3:5A:6E:7F:14:6A:39:4E:A0
            X509v3 Authority Key Identifier: 
                keyid:A7:2A:7D:FA:2C:3D:C1:8D:3C:3B:FF:DF:0E:AB:34:82:50:FE:6A:F5

            X509v3 Subject Alternative Name: 
                DNS:practicetestautomation.com
    Signature Algorithm: sha256WithRSAEncryption
         77:5a:b5:55:42:22:e3:1b:0a:1c:3f:f5:07:ee:57:86:0d:a3:
         33:b5:14:db:ad:58:b2:0e:1d:5e:bb:bb:4f:c6:48:0c:7f:a6:
         3b:26:d8:60:9a:d6:13:d3:41:93:03:11:c9:80:a0:e6:01:ac:
         e5:0e:8e:d4:fc:d2:f6:f7:6e:3c:93:eb:13:e0:e6:13:74:8f:
         3b:4b:27:2d:5c:9d:3f:46:c8:52:4e:a4:f1:5a:a4:8c:b0:c1:
         5d:5b:16:34:d3:4e:3b:1c:7d:ba:e9:f8:f8:ee:01:a2:42:6b:
         4b:07:69:7f:4c:71:ae:99:7b:50:b8:2e:9a:9a:77:db:3e:0c:
         43:2d:91:c7:81:65:ea:9f:85:be:89:6a:bc:58:f8:5f:80:a9:
         49:51:b1:41:79:d6:2b:77:72:3b:36:65:5b:d8:95:19:0a:d2:
         06:e5:be:21:bf:cf:33:7a:41:15:c8:35:1d:f8:85:e5:3b:25:
         7d:4f:cb:8b:84:08:69:1f:65:91:bf:5a:2d:45:d9:87:8e:34:
         24:75:0a:26:7e:34:32:83:e6:cb:e7:5f:76:6d:6e:d1:69:a0:
         ea:9b:68:45:c3:65:81:a9:35:a4:3b:12:6e:03:a2:6f:e1:a8:
         46:e4:b7:10:4a:5b:a1:5e:b7:92:c7:19:1d:cf:51:79:e9:f1:
         ee:c1:7e:b8:df:01:31:65:db:6b:ad:c4:e2:f6:58:6a:66:7e:
         1f:b0:b2:a7:e1:21:cc:f0:46:7f:a4:e5:ca:47:ca:0f:fa:8d:
         e2:c0:42:d9:90:41:92:7e:9c:3a:f7:2c:52:71:38:d4:8c:8e:
         41:ab:e9:28:4f:72:f1:48:c6:72:0f:c9:c2:eb:de:e6:f1:20:
         55:03:e3:6a:97:79:f2:b8:bc:d3:78:18:4a:ca:ed:2a:b2:45:
         bc:57:19:e0:b1:60:d6:5b:a5:06:3e:ce:58:35:ac:66:0c:ba:
         30:71:bb:9e:0b:b7:38:c4:14:08:54:d9:ab:da:93:30:e3:ea:
         d6:ad:f3:aa:fd:96:d0:9c:97:9d:13:3d:98:89:0c:f8:d1:97:
         e4:7d:b2:6c:32:c3:63:b1:5f:74:6d:35:78:c8:0a:3d:b9:71:
         b7:e0:21:14:87:c3:98:ae:61:ca:b2:e2:70:7f:2f:62:fb:b4:
         5d:c3:c0:d1:14:de:2b:64:26:29:50:2e:20:2e:f4:7c:e0:cc:
         fd:4d:25:44:b8:89:39:a2:e3:0d:ab:51:b8:14:f3:16:4a:c7:
         45:e8:4a:bd:3e:08:b3:1d:7e:4f:c8:a3:99:a6:d0:09:c2:35:
         b8:59:ab:d4:e1:26:0a:85:8a:d3:f6:f5:07:ea:33:47:77:e4:
         8c:20:59:f3:4b:ad:b7:87
-----BEGIN CERTIFICATE-----
MIIEyjCCArKgAwIBAgICEAIwDQYJKoZIhvcNAQELBQAwXTELMAkGA1UEBhMCVVMx
CzAJBgNVBAgMAlZBMRAwDgYDVQQHDAdGYWlyZmF4MQwwCgYDVQQKDANHTVUxDjAM
BgNVBAsMBWNzNDY4MREwDwYDVQQDDAhteXJvb3RDQTAeFw0yNjA1MDYwNTI3NDNa
Fw0zNjA1MDMwNTI3NDNaME0xCzAJBgNVBAYTAlVTMQswCQYDVQQIDAJWQTEMMAoG
A1UECgwDR01VMSMwIQYDVQQDDBpwcmFjdGljZXRlc3RhdXRvbWF0aW9uLmNvbTCC
ASIwDQYJKoZIhvcNAQEBBQADggEPADCCAQoCggEBAKQW5TNtDQ+eFg33qTcXbG+a
/XgqhI3xbjaT3Bm38mQ8IVSa0gsrqIzuP9aSrj2dcRLPBlhHvy1c7stQ4U6PWjjg
6dscWLtnXQjYV1hY3ojZKRsM2Ui6Gwnb+NphPSQuHRDOxCu2snS+Z//QGXnyQGqX
LhEvcU6KjmUgULUJ4PRytxWALp3Tna/acGOFgoLNwBl/ZCaWVxFhfVeN5agMRAdE
HDkVid0syE/HFRqCG+IqURVTeRrjVn+eFcx33LcdgL1C4vYfVtsr4Gy0wGE52hiO
6nSYgvdwGyDatfX7bvDDAdanq9v8AKnmvNO5v1NBGlzAEV54z9UNTQjuzQBhkbUC
AwEAAaOBozCBoDAJBgNVHRMEAjAAMCwGCWCGSAGG+EIBDQQfFh1PcGVuU1NMIEdl
bmVyYXRlZCBDZXJ0aWZpY2F0ZTAdBgNVHQ4EFgQUwguGk3Mr5UozPTqzWm5/FGo5
TqAwHwYDVR0jBBgwFoAUpyp9+iw9wY08O//fDqs0glD+avUwJQYDVR0RBB4wHIIa
cHJhY3RpY2V0ZXN0YXV0b21hdGlvbi5jb20wDQYJKoZIhvcNAQELBQADggIBAHda
tVVCIuMbChw/9QfuV4YNozO1FNutWLIOHV67u0/GSAx/pjsm2GCa1hPTQZMDEcmA
oOYBrOUOjtT80vb3bjyT6xPg5hN0jztLJy1cnT9GyFJOpPFapIywwV1bFjTTTjsc
fbrp+PjuAaJCa0sHaX9Mca6Ze1C4Lpqad9s+DEMtkceBZeqfhb6JarxY+F+AqUlR
sUF51it3cjs2ZVvYlRkK0gblviG/zzN6QRXINR34heU7JX1Py4uECGkfZZG/Wi1F
2YeONCR1CiZ+NDKD5svnX3ZtbtFpoOqbaEXDZYGpNaQ7Em4Dom/hqEbktxBKW6Fe
t5LHGR3PUXnp8e7BfrjfATFl22utxOL2WGpmfh+wsqfhIczwRn+k5cpHyg/6jeLA
QtmQQZJ+nDr3LFJxONSMjkGr6ShPcvFIxnIPycLr3ubxIFUD42qXefK4vNN4GErK
7SqyRbxXGeCxYNZbpQY+zlg1rGYMujBxu54LtzjEFAhU2avakzDj6tat86r9ltCc
l50TPZiJDPjRl+R9smwyw2OxX3RtNXjICj25cbfgIRSHw5iuYcqy4nB/L2L7tF3D
wNEU3itkJilQLiAu9HzgzP1NJUS4iTmi4w2rUbgU8xZKx0XoSr0+CLMdfk/Io5mm
0AnCNbhZq9ThJgqFitP29QfqM0d35IwgWfNLrbeH
-----END CERTIFICATE-----
